target datalayout = "e-m:e-p270:32:32-p271:32:32-p272:64:64-i64:64-i128:128-f80:128-n8:16:32:64-S128"
target triple = "x86_64-pc-linux-gnu"

%struct.nghttp2_buf = type { ptr, ptr, ptr, ptr, ptr }
%struct.nghttp2_bufs = type { ptr, ptr, ptr, i64, i64, i64, i64, i64 }
%struct.nghttp2_buf_chain = type { ptr, %struct.nghttp2_buf }

; Function Attrs: nounwind uwtable
define dso_local i32 @nghttp2_buf_reserve(ptr noundef %0, i64 noundef %1, ptr noundef %2) #0 {
  %4 = alloca i32, align 4
  %5 = alloca ptr, align 8
  %6 = alloca i64, align 8
  %7 = alloca ptr, align 8
  %8 = alloca ptr, align 8
  %9 = alloca i64, align 8
  %10 = alloca i32, align 4
  store ptr %0, ptr %5, align 8, !tbaa !4
  store i64 %1, ptr %6, align 8, !tbaa !15
  store ptr %2, ptr %7, align 8, !tbaa !4
  call void @llvm.lifetime.start.p0(i64 8, ptr %8) #3
  call void @llvm.lifetime.start.p0(i64 8, ptr %9) #3
  %11 = load ptr, ptr %5, align 8, !tbaa !4
  %12 = getelementptr inbounds nuw %struct.nghttp2_buf, ptr %11, i32 0, i32 1
  %13 = load ptr, ptr %12, align 8, !tbaa !11
  %14 = load ptr, ptr %5, align 8, !tbaa !4
  %15 = getelementptr inbounds nuw %struct.nghttp2_buf, ptr %14, i32 0, i32 0
  %16 = load ptr, ptr %15, align 8, !tbaa !8
  %17 = ptrtoint ptr %13 to i64
  %18 = ptrtoint ptr %16 to i64
  %19 = sub i64 %17, %18
  store i64 %19, ptr %9, align 8, !tbaa !15
  %20 = load i64, ptr %9, align 8, !tbaa !15
  %21 = load i64, ptr %6, align 8, !tbaa !15
  %22 = icmp uge i64 %20, %21
  br i1 %22, label %23, label %24

23:                                               ; preds = %3
  store i32 0, ptr %4, align 4
  store i32 1, ptr %10, align 4
  br label %93

24:                                               ; preds = %3
  %25 = load i64, ptr %6, align 8, !tbaa !15
  %26 = load i64, ptr %9, align 8, !tbaa !15
  %27 = mul i64 %26, 2
  %28 = icmp ugt i64 %25, %27
  br i1 %28, label %29, label %31

29:                                               ; preds = %24
  %30 = load i64, ptr %6, align 8, !tbaa !15
  br label %34

31:                                               ; preds = %24
  %32 = load i64, ptr %9, align 8, !tbaa !15
  %33 = mul i64 %32, 2
  br label %34

34:                                               ; preds = %31, %29
  %35 = phi i64 [ %30, %29 ], [ %33, %31 ]
  store i64 %35, ptr %6, align 8, !tbaa !15
  %36 = load ptr, ptr %7, align 8, !tbaa !4
  %37 = load ptr, ptr %5, align 8, !tbaa !4
  %38 = getelementptr inbounds nuw %struct.nghttp2_buf, ptr %37, i32 0, i32 0
  %39 = load ptr, ptr %38, align 8, !tbaa !8
  %40 = load i64, ptr %6, align 8, !tbaa !15
  %41 = call ptr @nghttp2_mem_realloc(ptr noundef %36, ptr noundef %39, i64 noundef %40)
  store ptr %41, ptr %8, align 8, !tbaa !17
  %42 = load ptr, ptr %8, align 8, !tbaa !17
  %43 = icmp eq ptr %42, null
  br i1 %43, label %44, label %45

44:                                               ; preds = %34
  store i32 -901, ptr %4, align 4
  store i32 1, ptr %10, align 4
  br label %93

45:                                               ; preds = %34
  %46 = load ptr, ptr %8, align 8, !tbaa !17
  %47 = load ptr, ptr %5, align 8, !tbaa !4
  %48 = getelementptr inbounds nuw %struct.nghttp2_buf, ptr %47, i32 0, i32 2
  %49 = load ptr, ptr %48, align 8, !tbaa !12
  %50 = load ptr, ptr %5, align 8, !tbaa !4
  %51 = getelementptr inbounds nuw %struct.nghttp2_buf, ptr %50, i32 0, i32 0
  %52 = load ptr, ptr %51, align 8, !tbaa !8
  %53 = ptrtoint ptr %49 to i64
  %54 = ptrtoint ptr %52 to i64
  %55 = sub i64 %53, %54
  %56 = getelementptr inbounds i8, ptr %46, i64 %55
  %57 = load ptr, ptr %5, align 8, !tbaa !4
  %58 = getelementptr inbounds nuw %struct.nghttp2_buf, ptr %57, i32 0, i32 2
  store ptr %56, ptr %58, align 8, !tbaa !12
  %59 = load ptr, ptr %8, align 8, !tbaa !17
  %60 = load ptr, ptr %5, align 8, !tbaa !4
  %61 = getelementptr inbounds nuw %struct.nghttp2_buf, ptr %60, i32 0, i32 3
  %62 = load ptr, ptr %61, align 8, !tbaa !13
  %63 = load ptr, ptr %5, align 8, !tbaa !4
  %64 = getelementptr inbounds nuw %struct.nghttp2_buf, ptr %63, i32 0, i32 0
  %65 = load ptr, ptr %64, align 8, !tbaa !8
  %66 = ptrtoint ptr %62 to i64
  %67 = ptrtoint ptr %65 to i64
  %68 = sub i64 %66, %67
  %69 = getelementptr inbounds i8, ptr %59, i64 %68
  %70 = load ptr, ptr %5, align 8, !tbaa !4
  %71 = getelementptr inbounds nuw %struct.nghttp2_buf, ptr %70, i32 0, i32 3
  store ptr %69, ptr %71, align 8, !tbaa !13
  %72 = load ptr, ptr %8, align 8, !tbaa !17
  %73 = load ptr, ptr %5, align 8, !tbaa !4
  %74 = getelementptr inbounds nuw %struct.nghttp2_buf, ptr %73, i32 0, i32 4
  %75 = load ptr, ptr %74, align 8, !tbaa !14
  %76 = load ptr, ptr %5, align 8, !tbaa !4
  %77 = getelementptr inbounds nuw %struct.nghttp2_buf, ptr %76, i32 0, i32 0
  %78 = load ptr, ptr %77, align 8, !tbaa !8
  %79 = ptrtoint ptr %75 to i64
  %80 = ptrtoint ptr %78 to i64
  %81 = sub i64 %79, %80
  %82 = getelementptr inbounds i8, ptr %72, i64 %81
  %83 = load ptr, ptr %5, align 8, !tbaa !4
  %84 = getelementptr inbounds nuw %struct.nghttp2_buf, ptr %83, i32 0, i32 4
  store ptr %82, ptr %84, align 8, !tbaa !14
  %85 = load ptr, ptr %8, align 8, !tbaa !17
  %86 = load ptr, ptr %5, align 8, !tbaa !4
  %87 = getelementptr inbounds nuw %struct.nghttp2_buf, ptr %86, i32 0, i32 0
  store ptr %85, ptr %87, align 8, !tbaa !8
  %88 = load ptr, ptr %8, align 8, !tbaa !17
  %89 = load i64, ptr %6, align 8, !tbaa !15
  %90 = getelementptr inbounds nuw i8, ptr %88, i64 %89
  %91 = load ptr, ptr %5, align 8, !tbaa !4
  %92 = getelementptr inbounds nuw %struct.nghttp2_buf, ptr %91, i32 0, i32 1
  store ptr %90, ptr %92, align 8, !tbaa !11
  store i32 0, ptr %4, align 4
  store i32 1, ptr %10, align 4
  br label %93

93:                                               ; preds = %45, %44, %23
  call void @llvm.lifetime.end.p0(i64 8, ptr %9) #3
  call void @llvm.lifetime.end.p0(i64 8, ptr %8) #3
  %94 = load i32, ptr %4, align 4
  ret i32 %94
}

; Function Attrs: nounwind uwtable
define dso_local void @nghttp2_buf_init(ptr noundef %0) #0 {
  %2 = alloca ptr, align 8
  store ptr %0, ptr %2, align 8, !tbaa !4
  %3 = load ptr, ptr %2, align 8, !tbaa !4
  %4 = getelementptr inbounds nuw %struct.nghttp2_buf, ptr %3, i32 0, i32 0
  store ptr null, ptr %4, align 8, !tbaa !8
  %5 = load ptr, ptr %2, align 8, !tbaa !4
  %6 = getelementptr inbounds nuw %struct.nghttp2_buf, ptr %5, i32 0, i32 1
  store ptr null, ptr %6, align 8, !tbaa !11
  %7 = load ptr, ptr %2, align 8, !tbaa !4
  %8 = getelementptr inbounds nuw %struct.nghttp2_buf, ptr %7, i32 0, i32 2
  store ptr null, ptr %8, align 8, !tbaa !12
  %9 = load ptr, ptr %2, align 8, !tbaa !4
  %10 = getelementptr inbounds nuw %struct.nghttp2_buf, ptr %9, i32 0, i32 3
  store ptr null, ptr %10, align 8, !tbaa !13
  %11 = load ptr, ptr %2, align 8, !tbaa !4
  %12 = getelementptr inbounds nuw %struct.nghttp2_buf, ptr %11, i32 0, i32 4
  store ptr null, ptr %12, align 8, !tbaa !14
  ret void
}

; Function Attrs: nounwind uwtable
define dso_local i32 @nghttp2_buf_init2(ptr noundef %0, i64 noundef %1, ptr noundef %2) #0 {
  %4 = alloca ptr, align 8
  %5 = alloca i64, align 8
  %6 = alloca ptr, align 8
  store ptr %0, ptr %4, align 8, !tbaa !4
  store i64 %1, ptr %5, align 8, !tbaa !15
  store ptr %2, ptr %6, align 8, !tbaa !4
  %7 = load ptr, ptr %4, align 8, !tbaa !4
  call void @nghttp2_buf_init(ptr noundef %7)
  %8 = load ptr, ptr %4, align 8, !tbaa !4
  %9 = load i64, ptr %5, align 8, !tbaa !15
  %10 = load ptr, ptr %6, align 8, !tbaa !4
  %11 = call i32 @nghttp2_buf_reserve(ptr noundef %8, i64 noundef %9, ptr noundef %10)
  ret i32 %11
}

; Function Attrs: nounwind uwtable
define internal i32 @buf_chain_new(ptr noundef %0, i64 noundef %1, ptr noundef %2) #0 {
  %4 = alloca i32, align 4
  %5 = alloca ptr, align 8
  %6 = alloca i64, align 8
  %7 = alloca ptr, align 8
  %8 = alloca i32, align 4
  %9 = alloca i32, align 4
  store ptr %0, ptr %5, align 8, !tbaa !34
  store i64 %1, ptr %6, align 8, !tbaa !15
  store ptr %2, ptr %7, align 8, !tbaa !4
  call void @llvm.lifetime.start.p0(i64 4, ptr %8) #3
  %10 = load ptr, ptr %7, align 8, !tbaa !4
  %11 = call ptr @nghttp2_mem_malloc(ptr noundef %10, i64 noundef 48)
  %12 = load ptr, ptr %5, align 8, !tbaa !34
  store ptr %11, ptr %12, align 8, !tbaa !24
  %13 = load ptr, ptr %5, align 8, !tbaa !34
  %14 = load ptr, ptr %13, align 8, !tbaa !24
  %15 = icmp eq ptr %14, null
  br i1 %15, label %16, label %17

16:                                               ; preds = %3
  store i32 -901, ptr %4, align 4
  store i32 1, ptr %9, align 4
  br label %34

17:                                               ; preds = %3
  %18 = load ptr, ptr %5, align 8, !tbaa !34
  %19 = load ptr, ptr %18, align 8, !tbaa !24
  %20 = getelementptr inbounds nuw %struct.nghttp2_buf_chain, ptr %19, i32 0, i32 0
  store ptr null, ptr %20, align 8, !tbaa !36
  %21 = load ptr, ptr %5, align 8, !tbaa !34
  %22 = load ptr, ptr %21, align 8, !tbaa !24
  %23 = getelementptr inbounds nuw %struct.nghttp2_buf_chain, ptr %22, i32 0, i32 1
  %24 = load i64, ptr %6, align 8, !tbaa !15
  %25 = load ptr, ptr %7, align 8, !tbaa !4
  %26 = call i32 @nghttp2_buf_init2(ptr noundef %23, i64 noundef %24, ptr noundef %25)
  store i32 %26, ptr %8, align 4, !tbaa !18
  %27 = load i32, ptr %8, align 4, !tbaa !18
  %28 = icmp ne i32 %27, 0
  br i1 %28, label %29, label %33

29:                                               ; preds = %17
  %30 = load ptr, ptr %7, align 8, !tbaa !4
  %31 = load ptr, ptr %5, align 8, !tbaa !34
  %32 = load ptr, ptr %31, align 8, !tbaa !24
  call void @nghttp2_mem_free(ptr noundef %30, ptr noundef %32)
  store i32 -901, ptr %4, align 4
  store i32 1, ptr %9, align 4
  br label %34

33:                                               ; preds = %17
  store i32 0, ptr %4, align 4
  store i32 1, ptr %9, align 4
  br label %34

34:                                               ; preds = %33, %29, %16
  call void @llvm.lifetime.end.p0(i64 4, ptr %8) #3
  %35 = load i32, ptr %4, align 4
  ret i32 %35
}

; Function Attrs: nounwind uwtable
define internal i32 @bufs_alloc_chain(ptr noundef %0) #0 {
  %2 = alloca i32, align 4
  %3 = alloca ptr, align 8
  %4 = alloca i32, align 4
  %5 = alloca ptr, align 8
  %6 = alloca i32, align 4
  store ptr %0, ptr %3, align 8, !tbaa !4
  call void @llvm.lifetime.start.p0(i64 4, ptr %4) #3
  call void @llvm.lifetime.start.p0(i64 8, ptr %5) #3
  %7 = load ptr, ptr %3, align 8, !tbaa !4
  %8 = getelementptr inbounds nuw %struct.nghttp2_bufs, ptr %7, i32 0, i32 1
  %9 = load ptr, ptr %8, align 8, !tbaa !26
  %10 = getelementptr inbounds nuw %struct.nghttp2_buf_chain, ptr %9, i32 0, i32 0
  %11 = load ptr, ptr %10, align 8, !tbaa !36
  %12 = icmp ne ptr %11, null
  br i1 %12, label %13, label %21

13:                                               ; preds = %1
  %14 = load ptr, ptr %3, align 8, !tbaa !4
  %15 = getelementptr inbounds nuw %struct.nghttp2_bufs, ptr %14, i32 0, i32 1
  %16 = load ptr, ptr %15, align 8, !tbaa !26
  %17 = getelementptr inbounds nuw %struct.nghttp2_buf_chain, ptr %16, i32 0, i32 0
  %18 = load ptr, ptr %17, align 8, !tbaa !36
  %19 = load ptr, ptr %3, align 8, !tbaa !4
  %20 = getelementptr inbounds nuw %struct.nghttp2_bufs, ptr %19, i32 0, i32 1
  store ptr %18, ptr %20, align 8, !tbaa !26
  store i32 0, ptr %2, align 4
  store i32 1, ptr %6, align 4
  br label %81

21:                                               ; preds = %1
  %22 = load ptr, ptr %3, align 8, !tbaa !4
  %23 = getelementptr inbounds nuw %struct.nghttp2_bufs, ptr %22, i32 0, i32 4
  %24 = load i64, ptr %23, align 8, !tbaa !32
  %25 = load ptr, ptr %3, align 8, !tbaa !4
  %26 = getelementptr inbounds nuw %struct.nghttp2_bufs, ptr %25, i32 0, i32 5
  %27 = load i64, ptr %26, align 8, !tbaa !31
  %28 = icmp eq i64 %24, %27
  br i1 %28, label %29, label %30

29:                                               ; preds = %21
  store i32 -502, ptr %2, align 4
  store i32 1, ptr %6, align 4
  br label %81

30:                                               ; preds = %21
  %31 = load ptr, ptr %3, align 8, !tbaa !4
  %32 = getelementptr inbounds nuw %struct.nghttp2_bufs, ptr %31, i32 0, i32 3
  %33 = load i64, ptr %32, align 8, !tbaa !30
  %34 = load ptr, ptr %3, align 8, !tbaa !4
  %35 = getelementptr inbounds nuw %struct.nghttp2_bufs, ptr %34, i32 0, i32 2
  %36 = load ptr, ptr %35, align 8, !tbaa !20
  %37 = call i32 @buf_chain_new(ptr noundef %5, i64 noundef %33, ptr noundef %36)
  store i32 %37, ptr %4, align 4, !tbaa !18
  %38 = load i32, ptr %4, align 4, !tbaa !18
  %39 = icmp ne i32 %38, 0
  br i1 %39, label %40, label %42

40:                                               ; preds = %30
  %41 = load i32, ptr %4, align 4, !tbaa !18
  store i32 %41, ptr %2, align 4
  store i32 1, ptr %6, align 4
  br label %81

42:                                               ; preds = %30
  br label %43

43:                                               ; preds = %42
  br label %44

44:                                               ; preds = %43
  br label %45

45:                                               ; preds = %44
  %46 = load ptr, ptr %3, align 8, !tbaa !4
  %47 = getelementptr inbounds nuw %struct.nghttp2_bufs, ptr %46, i32 0, i32 5
  %48 = load i64, ptr %47, align 8, !tbaa !31
  %49 = add i64 %48, 1
  store i64 %49, ptr %47, align 8, !tbaa !31
  %50 = load ptr, ptr %5, align 8, !tbaa !24
  %51 = load ptr, ptr %3, align 8, !tbaa !4
  %52 = getelementptr inbounds nuw %struct.nghttp2_bufs, ptr %51, i32 0, i32 1
  %53 = load ptr, ptr %52, align 8, !tbaa !26
  %54 = getelementptr inbounds nuw %struct.nghttp2_buf_chain, ptr %53, i32 0, i32 0
  store ptr %50, ptr %54, align 8, !tbaa !36
  %55 = load ptr, ptr %5, align 8, !tbaa !24
  %56 = load ptr, ptr %3, align 8, !tbaa !4
  %57 = getelementptr inbounds nuw %struct.nghttp2_bufs, ptr %56, i32 0, i32 1
  store ptr %55, ptr %57, align 8, !tbaa !26
  br label %58

58:                                               ; preds = %45
  %59 = load ptr, ptr %3, align 8, !tbaa !4
  %60 = getelementptr inbounds nuw %struct.nghttp2_bufs, ptr %59, i32 0, i32 7
  %61 = load i64, ptr %60, align 8, !tbaa !23
  %62 = load ptr, ptr %3, align 8, !tbaa !4
  %63 = getelementptr inbounds nuw %struct.nghttp2_bufs, ptr %62, i32 0, i32 1
  %64 = load ptr, ptr %63, align 8, !tbaa !26
  %65 = getelementptr inbounds nuw %struct.nghttp2_buf_chain, ptr %64, i32 0, i32 1
  %66 = getelementptr inbounds nuw %struct.nghttp2_buf, ptr %65, i32 0, i32 2
  %67 = load ptr, ptr %66, align 8, !tbaa !27
  %68 = getelementptr inbounds nuw i8, ptr %67, i64 %61
  store ptr %68, ptr %66, align 8, !tbaa !27
  %69 = load ptr, ptr %3, align 8, !tbaa !4
  %70 = getelementptr inbounds nuw %struct.nghttp2_bufs, ptr %69, i32 0, i32 7
  %71 = load i64, ptr %70, align 8, !tbaa !23
  %72 = load ptr, ptr %3, align 8, !tbaa !4
  %73 = getelementptr inbounds nuw %struct.nghttp2_bufs, ptr %72, i32 0, i32 1
  %74 = load ptr, ptr %73, align 8, !tbaa !26
  %75 = getelementptr inbounds nuw %struct.nghttp2_buf_chain, ptr %74, i32 0, i32 1
  %76 = getelementptr inbounds nuw %struct.nghttp2_buf, ptr %75, i32 0, i32 3
  %77 = load ptr, ptr %76, align 8, !tbaa !29
  %78 = getelementptr inbounds nuw i8, ptr %77, i64 %71
  store ptr %78, ptr %76, align 8, !tbaa !29
  br label %79

79:                                               ; preds = %58
  br label %80

80:                                               ; preds = %79
  store i32 0, ptr %2, align 4
  store i32 1, ptr %6, align 4
  br label %81

81:                                               ; preds = %80, %40, %29, %13
  call void @llvm.lifetime.end.p0(i64 8, ptr %5) #3
  call void @llvm.lifetime.end.p0(i64 4, ptr %4) #3
  %82 = load i32, ptr %2, align 4
  ret i32 %82
}